; Function Attrs: nounwind uwtable
define ptr @l_Lean_isInductive___rarg___lambda__1(ptr noundef %0, ptr noundef %1, ptr noundef %2) #0 {
  %4 = getelementptr inbounds nuw i8, ptr %0, i64 8
  %5 = load ptr, ptr %4, align 8, !tbaa !10
  %6 = ptrtoint ptr %5 to i64
  %7 = and i64 %6, 1
  %.not = icmp eq i64 %7, 0
  br i1 %.not, label %8, label %lean_inc.exit11

8:                                                ; preds = %3
  %.val.i = load i32, ptr %5, align 4, !tbaa !4
  %9 = icmp sgt i32 %.val.i, 0
  br i1 %9, label %10, label %12, !prof !9

10:                                               ; preds = %8
  %11 = add nuw i32 %.val.i, 1
  store i32 %11, ptr %5, align 4, !tbaa !4
  br label %lean_inc.exit11

12:                                               ; preds = %8
  %.not.i15 = icmp eq i32 %.val.i, 0
  br i1 %.not.i15, label %lean_inc.exit11, label %13

13:                                               ; preds = %12
  tail call void @lean_inc_ref_cold(ptr noundef nonnull %5) #4
  br label %lean_inc.exit11

lean_inc.exit11:                                  ; preds = %13, %12, %10, %3
  %14 = ptrtoint ptr %0 to i64
  %15 = and i64 %14, 1
  %.not19 = icmp eq i64 %15, 0
  br i1 %.not19, label %16, label %lean_dec.exit12

16:                                               ; preds = %lean_inc.exit11
  %17 = load i32, ptr %0, align 4, !tbaa !4
  %18 = icmp sgt i32 %17, 1
  br i1 %18, label %19, label %21, !prof !9

19:                                               ; preds = %16
  %20 = add nsw i32 %17, -1
  store i32 %20, ptr %0, align 4, !tbaa !4
  br label %lean_dec.exit12

21:                                               ; preds = %16
  %.not.i = icmp eq i32 %17, 0
  br i1 %.not.i, label %lean_dec.exit12, label %22

22:                                               ; preds = %21
  tail call void @lean_dec_ref_cold(ptr noundef nonnull %0) #4
  br label %lean_dec.exit12

lean_dec.exit12:                                  ; preds = %22, %21, %19, %lean_inc.exit11
  %23 = getelementptr inbounds nuw i8, ptr %5, i64 16
  %24 = load ptr, ptr %23, align 8, !tbaa !10
  %25 = ptrtoint ptr %24 to i64
  %26 = and i64 %25, 1
  %.not20 = icmp eq i64 %26, 0
  br i1 %.not20, label %27, label %lean_inc.exit

27:                                               ; preds = %lean_dec.exit12
  %.val.i16 = load i32, ptr %24, align 4, !tbaa !4
  %28 = icmp sgt i32 %.val.i16, 0
  br i1 %28, label %29, label %31, !prof !9

29:                                               ; preds = %27
  %30 = add nuw i32 %.val.i16, 1
  store i32 %30, ptr %24, align 4, !tbaa !4
  br label %lean_inc.exit

31:                                               ; preds = %27
  %.not.i17 = icmp eq i32 %.val.i16, 0
  br i1 %.not.i17, label %lean_inc.exit, label %32

32:                                               ; preds = %31
  tail call void @lean_inc_ref_cold(ptr noundef nonnull %24) #4
  br label %lean_inc.exit

lean_inc.exit:                                    ; preds = %32, %31, %29, %lean_dec.exit12
  br i1 %.not, label %33, label %lean_dec.exit

33:                                               ; preds = %lean_inc.exit
  %34 = load i32, ptr %5, align 4, !tbaa !4
  %35 = icmp sgt i32 %34, 1
  br i1 %35, label %36, label %38, !prof !9

36:                                               ; preds = %33
  %37 = add nsw i32 %34, -1
  store i32 %37, ptr %5, align 4, !tbaa !4
  br label %lean_dec.exit

38:                                               ; preds = %33
  %.not.i13 = icmp eq i32 %34, 0
  br i1 %.not.i13, label %lean_dec.exit, label %39

39:                                               ; preds = %38
  tail call void @lean_dec_ref_cold(ptr noundef nonnull %5) #4
  br label %lean_dec.exit

lean_dec.exit:                                    ; preds = %39, %38, %36, %lean_inc.exit
  %40 = tail call zeroext i8 @l_Lean_isInductiveCore(ptr noundef %2, ptr noundef %1)
  %41 = shl nuw nsw i8 %40, 1
  %42 = or disjoint i8 %41, 1
  %43 = zext nneg i8 %42 to i64
  %44 = inttoptr i64 %43 to ptr
  %45 = tail call ptr @lean_apply_2(ptr noundef %24, ptr noundef nonnull inttoptr (i64 1 to ptr), ptr noundef nonnull %44) #4
  ret ptr %45
}